target datalayout = "e-m:e-p270:32:32-p271:32:32-p272:64:64-i64:64-i128:128-f80:128-n8:16:32:64-S128"
target triple = "x86_64-pc-linux-gnu"

%struct.slurm_conf_t = type { i64, ptr, i16, ptr, ptr, ptr, ptr, ptr, i16, ptr, ptr, ptr, ptr, ptr, ptr, ptr, i16, ptr, ptr, ptr, ptr, i16, ptr, ptr, ptr, i64, ptr, ptr, ptr, ptr, i16, ptr, ptr, i16, i32, ptr, i32, ptr, i32, i32, ptr, ptr, i64, i64, ptr, i16, i16, ptr, i32, i32, ptr, i32, ptr, i32, i16, i16, i16, ptr, i16, i16, ptr, ptr, i32, i16, i16, ptr, i32, i16, ptr, ptr, ptr, ptr, i16, ptr, ptr, ptr, ptr, i32, ptr, ptr, ptr, ptr, i16, i16, ptr, i32, i32, i32, i16, i16, ptr, ptr, i16, ptr, ptr, i32, i32, i32, i32, i32, i64, i32, i32, i16, ptr, ptr, i32, ptr, ptr, ptr, i16, i32, ptr, ptr, i16, ptr, ptr, i32, i16, ptr, ptr, ptr, ptr, i32, i32, i16, i16, i32, ptr, i16, ptr, i32, i32, i32, i32, i32, i32, ptr, i16, ptr, ptr, i32, i16, ptr, i32, i16, i16, ptr, ptr, ptr, i16, ptr, ptr, ptr, ptr, i16, i16, ptr, i16, ptr, i16, ptr, i16, ptr, i16, ptr, ptr, ptr, ptr, i16, ptr, ptr, ptr, i32, ptr, i32, ptr, ptr, i16, ptr, ptr, i32, i16, ptr, ptr, i16, i16, ptr, i16, ptr, ptr, ptr, i32, ptr, i16, i16, ptr, ptr, ptr, ptr, ptr, ptr, ptr, ptr, i16, i32, i16, ptr, ptr, ptr, ptr, i32, ptr, ptr, ptr, i16, ptr, ptr, ptr, i16, ptr, i16, ptr, i16, i16, ptr }
%struct.job_record = type { i32, ptr, ptr, ptr, ptr, i16, i32, i32, i32, ptr, i32, ptr, ptr, i16, ptr, double, i64, ptr, ptr, ptr, ptr, ptr, ptr, i32, ptr, i32, i64, i64, i32, i32, ptr, i16, i64, i64, i8, i32, ptr, ptr, ptr, ptr, ptr, ptr, ptr, ptr, i32, ptr, ptr, i32, ptr, i32, ptr, i32, ptr, i32, ptr, ptr, ptr, ptr, ptr, ptr, i32, i16, i64, ptr, ptr, ptr, ptr, %struct.acct_policy_limit_set_t, i16, ptr, ptr, ptr, ptr, ptr, i32, ptr, ptr, ptr, ptr, ptr, i32, i32, ptr, ptr, ptr, i16, ptr, ptr, i8, ptr, ptr, i64, i64, i8, i32, i32, i8, i32, ptr, i32, i64, i32, ptr, ptr, ptr, i8, i16, i64, i32, ptr, ptr, ptr, ptr, ptr, i16, i32, ptr, ptr, ptr, ptr, i32, ptr, i32, i16, i64, ptr, i32, i32, ptr, i64, ptr, ptr, i64, i32, i32, i64, i32, i32, ptr, ptr, ptr, ptr, ptr, ptr, ptr, ptr, ptr, ptr, ptr, ptr, i32, ptr, i16, i16, i16, i16, ptr, i32, i32, i8, i64 }
%struct.acct_policy_limit_set_t = type { i16, i16, ptr }
%struct.node_record = type { ptr, ptr, i16, i64, i64, ptr, ptr, ptr, i16, ptr, i16, i16, i32, i32, i64, ptr, i16, i16, ptr, ptr, ptr, ptr, ptr, i64, i64, ptr, ptr, ptr, ptr, i32, ptr, ptr, i64, i64, i32, ptr, i64, ptr, i32, i16, ptr, ptr, i32, ptr, i32, i8, ptr, i32, i16, i16, ptr, i16, i64, i16, i64, ptr, i64, i32, i16, i64, i16, ptr, i16, i64, ptr, i64, i16, i32, i16, ptr, ptr, ptr, i16, i32, i16, i16, i32, ptr, i16, i32 }

@slurm_conf = external global %struct.slurm_conf_t, align 8
@.str = private unnamed_addr constant [4 x i8] c"TBD\00", align 1
@cloud_dns = external global i8, align 1

; Function Attrs: nounwind uwtable
define dso_local void @set_initial_job_alias_list(ptr noundef %0) #0 {
  %2 = alloca ptr, align 8
  %3 = alloca ptr, align 8
  %4 = alloca i8, align 1
  %5 = alloca i8, align 1
  %6 = alloca i8, align 1
  %7 = alloca i32, align 4
  store ptr %0, ptr %2, align 8
  call void @llvm.lifetime.start.p0(i64 8, ptr %3) #8
  call void @llvm.lifetime.start.p0(i64 1, ptr %4) #8
  store i8 0, ptr %4, align 1
  call void @llvm.lifetime.start.p0(i64 1, ptr %5) #8
  store i8 0, ptr %5, align 1
  call void @llvm.lifetime.start.p0(i64 1, ptr %6) #8
  store i8 0, ptr %6, align 1
  call void @llvm.lifetime.start.p0(i64 4, ptr %7) #8
  store i32 0, ptr %7, align 4
  br label %8

8:                                                ; preds = %55, %1
  %9 = load ptr, ptr %2, align 8
  %10 = getelementptr inbounds nuw %struct.job_record, ptr %9, i32 0, i32 77
  %11 = load ptr, ptr %10, align 8
  %12 = call ptr @next_node_bitmap(ptr noundef %11, ptr noundef %7)
  store ptr %12, ptr %3, align 8
  %13 = icmp ne ptr %12, null
  br i1 %13, label %15, label %14

14:                                               ; preds = %8
  call void @llvm.lifetime.end.p0(i64 4, ptr %7) #8
  br label %58

15:                                               ; preds = %8
  %16 = load ptr, ptr %3, align 8
  %17 = getelementptr inbounds nuw %struct.node_record, ptr %16, i32 0, i32 44
  %18 = load i32, ptr %17, align 8
  %19 = zext i32 %18 to i64
  %20 = and i64 %19, 524288
  %21 = icmp ne i64 %20, 0
  br i1 %21, label %22, label %23

22:                                               ; preds = %15
  store i8 1, ptr %4, align 1
  br label %23

23:                                               ; preds = %22, %15
  %24 = load ptr, ptr %3, align 8
  %25 = getelementptr inbounds nuw %struct.node_record, ptr %24, i32 0, i32 44
  %26 = load i32, ptr %25, align 8
  %27 = zext i32 %26 to i64
  %28 = and i64 %27, 67108864
  %29 = icmp ne i64 %28, 0
  br i1 %29, label %30, label %31

30:                                               ; preds = %23
  store i8 1, ptr %4, align 1
  store i8 1, ptr %6, align 1
  br label %31

31:                                               ; preds = %30, %23
  %32 = load ptr, ptr %3, align 8
  %33 = getelementptr inbounds nuw %struct.node_record, ptr %32, i32 0, i32 44
  %34 = load i32, ptr %33, align 8
  %35 = zext i32 %34 to i64
  %36 = and i64 %35, 128
  %37 = icmp ne i64 %36, 0
  br i1 %37, label %38, label %54

38:                                               ; preds = %31
  store i8 1, ptr %4, align 1
  %39 = load ptr, ptr %3, align 8
  %40 = getelementptr inbounds nuw %struct.node_record, ptr %39, i32 0, i32 44
  %41 = load i32, ptr %40, align 8
  %42 = zext i32 %41 to i64
  %43 = and i64 %42, 4096
  %44 = icmp ne i64 %43, 0
  br i1 %44, label %52, label %45

45:                                               ; preds = %38
  %46 = load ptr, ptr %3, align 8
  %47 = getelementptr inbounds nuw %struct.node_record, ptr %46, i32 0, i32 44
  %48 = load i32, ptr %47, align 8
  %49 = zext i32 %48 to i64
  %50 = and i64 %49, 16384
  %51 = icmp ne i64 %50, 0
  br i1 %51, label %52, label %53

52:                                               ; preds = %45, %38
  store i8 1, ptr %5, align 1
  br label %53

53:                                               ; preds = %52, %45
  br label %54

54:                                               ; preds = %53, %31
  br label %55

55:                                               ; preds = %54
  %56 = load i32, ptr %7, align 4
  %57 = add nsw i32 %56, 1
  store i32 %57, ptr %7, align 4
  br label %8, !llvm.loop !11

58:                                               ; preds = %14
  %59 = load i8, ptr %4, align 1, !range !12, !noundef !13
  %60 = trunc i8 %59 to i1
  br i1 %60, label %61, label %105

61:                                               ; preds = %58
  %62 = load i8, ptr %5, align 1, !range !12, !noundef !13
  %63 = trunc i8 %62 to i1
  br i1 %63, label %64, label %82

64:                                               ; preds = %61
  %65 = load ptr, ptr %2, align 8
  %66 = getelementptr inbounds nuw %struct.job_record, ptr %65, i32 0, i32 84
  %67 = load ptr, ptr %66, align 8
  %68 = icmp ne ptr %67, null
  br i1 %68, label %69, label %82

69:                                               ; preds = %64
  %70 = load ptr, ptr getelementptr inbounds nuw (%struct.slurm_conf_t, ptr @slurm_conf, i32 0, i32 31), align 8
  %71 = load ptr, ptr %2, align 8
  %72 = getelementptr inbounds nuw %struct.job_record, ptr %71, i32 0, i32 84
  %73 = load ptr, ptr %72, align 8
  %74 = call i32 @xstrcmp(ptr noundef %70, ptr noundef %73)
  %75 = icmp ne i32 %74, 0
  br i1 %75, label %76, label %82

76:                                               ; preds = %69
  %77 = call ptr @xstrdup(ptr noundef @.str)
  %78 = load ptr, ptr %2, align 8
  %79 = getelementptr inbounds nuw %struct.job_record, ptr %78, i32 0, i32 3
  store ptr %77, ptr %79, align 8
  %80 = load ptr, ptr %2, align 8
  %81 = getelementptr inbounds nuw %struct.job_record, ptr %80, i32 0, i32 152
  store i16 1, ptr %81, align 8
  br label %104

82:                                               ; preds = %69, %64, %61
  %83 = load i8, ptr @cloud_dns, align 1, !range !12, !noundef !13
  %84 = trunc i8 %83 to i1
  br i1 %84, label %85, label %91

85:                                               ; preds = %82
  %86 = load i8, ptr %6, align 1, !range !12, !noundef !13
  %87 = trunc i8 %86 to i1
  br i1 %87, label %91, label %88

88:                                               ; preds = %85
  %89 = load ptr, ptr %2, align 8
  %90 = getelementptr inbounds nuw %struct.job_record, ptr %89, i32 0, i32 152
  store i16 1, ptr %90, align 8
  br label %103

91:                                               ; preds = %85, %82
  %92 = load i8, ptr %5, align 1, !range !12, !noundef !13
  %93 = trunc i8 %92 to i1
  br i1 %93, label %94, label %100

94:                                               ; preds = %91
  %95 = call ptr @xstrdup(ptr noundef @.str)
  %96 = load ptr, ptr %2, align 8
  %97 = getelementptr inbounds nuw %struct.job_record, ptr %96, i32 0, i32 3
  store ptr %95, ptr %97, align 8
  %98 = load ptr, ptr %2, align 8
  %99 = getelementptr inbounds nuw %struct.job_record, ptr %98, i32 0, i32 152
  store i16 1, ptr %99, align 8
  br label %102

100:                                              ; preds = %91
  %101 = load ptr, ptr %2, align 8
  call void @set_job_alias_list(ptr noundef %101)
  br label %102

102:                                              ; preds = %100, %94
  br label %103

103:                                              ; preds = %102, %88
  br label %104

104:                                              ; preds = %103, %76
  br label %110

105:                                              ; preds = %58
  %106 = load ptr, ptr %2, align 8
  %107 = load ptr, ptr %2, align 8
  %108 = getelementptr inbounds nuw %struct.job_record, ptr %107, i32 0, i32 84
  %109 = load ptr, ptr %108, align 8
  call void @set_job_node_addrs(ptr noundef %106, ptr noundef %109)
  br label %110

110:                                              ; preds = %105, %104
  call void @llvm.lifetime.end.p0(i64 1, ptr %6) #8
  call void @llvm.lifetime.end.p0(i64 1, ptr %5) #8
  call void @llvm.lifetime.end.p0(i64 1, ptr %4) #8
  call void @llvm.lifetime.end.p0(i64 8, ptr %3) #8
  ret void
}