; Function Attrs: nounwind uwtable
define dso_local void @set_initial_job_alias_list(ptr noundef %0) local_unnamed_addr #0 {
  %2 = alloca i32, align 4
  call void @llvm.lifetime.start.p0(i64 4, ptr nonnull %2) #14
  %3 = getelementptr inbounds nuw i8, ptr %0, i64 584
  store i32 0, ptr %2, align 4
  %4 = load ptr, ptr %3, align 8
  %5 = call ptr @next_node_bitmap(ptr noundef %4, ptr noundef nonnull %2) #14
  %.not34 = icmp eq ptr %5, null
  br i1 %.not34, label %._crit_edge.thread, label %.lr.ph

._crit_edge.thread:                               ; preds = %1
  call void @llvm.lifetime.end.p0(i64 4, ptr nonnull %2) #14
  br label %43

._crit_edge:                                      ; preds = %16
  call void @llvm.lifetime.end.p0(i64 4, ptr nonnull %2) #14
  br i1 %.3, label %21, label %43

.lr.ph:                                           ; preds = %1, %16
  %6 = phi ptr [ %20, %16 ], [ %5, %1 ]
  %.037 = phi i1 [ %.1, %16 ], [ false, %1 ]
  %.01936 = phi i1 [ %.120, %16 ], [ false, %1 ]
  %.02135 = phi i1 [ %.3, %16 ], [ false, %1 ]
  %7 = getelementptr inbounds nuw i8, ptr %6, i64 320
  %8 = load i32, ptr %7, align 8
  %9 = and i32 %8, 67108864
  %.not28 = icmp ne i32 %9, 0
  %10 = and i32 %8, 67633152
  %11 = icmp ne i32 %10, 0
  %.2 = select i1 %11, i1 true, i1 %.02135
  %.1 = select i1 %.not28, i1 true, i1 %.037
  %12 = zext i32 %8 to i64
  %13 = and i64 %12, 128
  %.not29 = icmp eq i64 %13, 0
  br i1 %.not29, label %16, label %14

14:                                               ; preds = %.lr.ph
  %15 = and i64 %12, 20480
  %or.cond = icmp ne i64 %15, 0
  %spec.select32 = select i1 %or.cond, i1 true, i1 %.01936
  br label %16

16:                                               ; preds = %14, %.lr.ph
  %.3 = phi i1 [ %.2, %.lr.ph ], [ true, %14 ]
  %.120 = phi i1 [ %.01936, %.lr.ph ], [ %spec.select32, %14 ]
  %17 = load i32, ptr %2, align 4
  %18 = add nsw i32 %17, 1
  store i32 %18, ptr %2, align 4
  %19 = load ptr, ptr %3, align 8
  %20 = call ptr @next_node_bitmap(ptr noundef %19, ptr noundef nonnull %2) #14
  %.not = icmp eq ptr %20, null
  br i1 %.not, label %._crit_edge, label %.lr.ph, !llvm.loop !11

21:                                               ; preds = %._crit_edge
  br i1 %.120, label %22, label %.thread

22:                                               ; preds = %21
  %23 = getelementptr inbounds nuw i8, ptr %0, i64 632
  %24 = load ptr, ptr %23, align 8
  %.not25 = icmp eq ptr %24, null
  br i1 %.not25, label %32, label %25

25:                                               ; preds = %22
  %26 = load ptr, ptr getelementptr inbounds nuw (i8, ptr @slurm_conf, i64 248), align 8
  %27 = call i32 @xstrcmp(ptr noundef %26, ptr noundef nonnull %24) #14
  %.not26 = icmp eq i32 %27, 0
  br i1 %.not26, label %32, label %28

28:                                               ; preds = %25
  %29 = call ptr @xstrdup(ptr noundef nonnull @.str) #14
  %30 = getelementptr inbounds nuw i8, ptr %0, i64 24
  store ptr %29, ptr %30, align 8
  %31 = getelementptr inbounds nuw i8, ptr %0, i64 1112
  store i16 1, ptr %31, align 8
  br label %46

32:                                               ; preds = %25, %22
  %33 = load i8, ptr @cloud_dns, align 1, !range !12, !noundef !13
  %34 = trunc nuw i8 %33 to i1
  %.not33 = xor i1 %34, true
  %brmerge = select i1 %.not33, i1 true, i1 %.1
  br i1 %brmerge, label %39, label %37

.thread:                                          ; preds = %21
  %35 = load i8, ptr @cloud_dns, align 1, !range !12, !noundef !13
  %36 = trunc nuw i8 %35 to i1
  %.not3343 = xor i1 %36, true
  %brmerge44 = select i1 %.not3343, i1 true, i1 %.1
  br i1 %brmerge44, label %.thread45, label %37

37:                                               ; preds = %.thread, %32
  %38 = getelementptr inbounds nuw i8, ptr %0, i64 1112
  store i16 1, ptr %38, align 8
  br label %46

39:                                               ; preds = %32
  %40 = call ptr @xstrdup(ptr noundef nonnull @.str) #14
  %41 = getelementptr inbounds nuw i8, ptr %0, i64 24
  store ptr %40, ptr %41, align 8
  %42 = getelementptr inbounds nuw i8, ptr %0, i64 1112
  store i16 1, ptr %42, align 8
  br label %46

.thread45:                                        ; preds = %.thread
  call void @set_job_alias_list(ptr noundef nonnull %0)
  br label %46

43:                                               ; preds = %._crit_edge.thread, %._crit_edge
  %44 = getelementptr inbounds nuw i8, ptr %0, i64 632
  %45 = load ptr, ptr %44, align 8
  call void @set_job_node_addrs(ptr noundef nonnull %0, ptr noundef %45)
  br label %46

46:                                               ; preds = %28, %39, %.thread45, %37, %43
  ret void
}